target datalayout = "e-m:e-p270:32:32-p271:32:32-p272:64:64-i64:64-i128:128-f80:128-n8:16:32:64-S128"
target triple = "x86_64-pc-linux-gnu"

%class.TimerGroup = type { %"class.std::vector", %"class.std::__cxx11::basic_string" }
%"class.std::vector" = type { %"struct.std::_Vector_base" }
%"struct.std::_Vector_base" = type { %"struct.std::_Vector_base<Timer, std::allocator<Timer>>::_Vector_impl" }
%"struct.std::_Vector_base<Timer, std::allocator<Timer>>::_Vector_impl" = type { %"struct.std::_Vector_base<Timer, std::allocator<Timer>>::_Vector_impl_data" }
%"struct.std::_Vector_base<Timer, std::allocator<Timer>>::_Vector_impl_data" = type { ptr, ptr, ptr }
%"class.std::__cxx11::basic_string" = type { %"struct.std::__cxx11::basic_string<char>::_Alloc_hider", i64, %union.anon }
%"struct.std::__cxx11::basic_string<char>::_Alloc_hider" = type { ptr }
%union.anon = type { i64, [8 x i8] }
%class.Timer = type { %"class.std::__cxx11::basic_string", i32, i64, i64, %"class.std::chrono::time_point", i64 }
%"class.std::chrono::time_point" = type { %"class.std::chrono::duration" }
%"class.std::chrono::duration" = type { i64 }
%"class.std::allocator.0" = type { i8 }

@.str.14 = private unnamed_addr constant [1 x i8] zeroinitializer, align 1
@.str.16 = private unnamed_addr constant [50 x i8] c"basic_string: construction from null is not valid\00", align 1

; Function Attrs: mustprogress nounwind uwtable
define linkonce_odr noundef i64 @_ZNSt11char_traitsIcE6lengthEPKc(ptr noundef %0) #5 comdat align 2 {
  %2 = alloca ptr, align 8
  store ptr %0, ptr %2, align 8
  %3 = load ptr, ptr %2, align 8
  %4 = call i64 @strlen(ptr noundef %3) #3
  ret i64 %4
}

; Function Attrs: mustprogress nounwind uwtable
define linkonce_odr void @_ZNSt7__cxx1112basic_stringIcSt11char_traitsIcESaIcEE12_Alloc_hiderD2Ev(ptr noundef nonnull align 8 dereferenceable(8) %0) unnamed_addr #5 comdat align 2 {
  %2 = alloca ptr, align 8
  store ptr %0, ptr %2, align 8
  %3 = load ptr, ptr %2, align 8
  call void @_ZNSaIcED2Ev(ptr noundef nonnull align 1 dereferenceable(1) %3) #3
  ret void
}

; Function Attrs: mustprogress nounwind uwtable
define linkonce_odr noundef nonnull align 8 dereferenceable(72) ptr @_ZNKSt6vectorI5TimerSaIS0_EEixEm(ptr noundef nonnull align 8 dereferenceable(24) %0, i64 noundef %1) #5 comdat align 2 {
  %3 = alloca ptr, align 8
  %4 = alloca i64, align 8
  store ptr %0, ptr %3, align 8
  store i64 %1, ptr %4, align 8
  %5 = load ptr, ptr %3, align 8
  %6 = getelementptr inbounds nuw %"struct.std::_Vector_base", ptr %5, i32 0, i32 0
  %7 = getelementptr inbounds nuw %"struct.std::_Vector_base<Timer, std::allocator<Timer>>::_Vector_impl_data", ptr %6, i32 0, i32 0
  %8 = load ptr, ptr %7, align 8
  %9 = load i64, ptr %4, align 8
  %10 = getelementptr inbounds %class.Timer, ptr %8, i64 %9
  ret ptr %10
}

; Function Attrs: mustprogress nounwind uwtable
define linkonce_odr noundef i64 @_ZNKSt6vectorI5TimerSaIS0_EE4sizeEv(ptr noundef nonnull align 8 dereferenceable(24) %0) #5 comdat align 2 {
  %2 = alloca ptr, align 8
  store ptr %0, ptr %2, align 8
  %3 = load ptr, ptr %2, align 8
  %4 = getelementptr inbounds nuw %"struct.std::_Vector_base", ptr %3, i32 0, i32 0
  %5 = getelementptr inbounds nuw %"struct.std::_Vector_base<Timer, std::allocator<Timer>>::_Vector_impl_data", ptr %4, i32 0, i32 1
  %6 = load ptr, ptr %5, align 8
  %7 = getelementptr inbounds nuw %"struct.std::_Vector_base", ptr %3, i32 0, i32 0
  %8 = getelementptr inbounds nuw %"struct.std::_Vector_base<Timer, std::allocator<Timer>>::_Vector_impl_data", ptr %7, i32 0, i32 0
  %9 = load ptr, ptr %8, align 8
  %10 = ptrtoint ptr %6 to i64
  %11 = ptrtoint ptr %9 to i64
  %12 = sub i64 %10, %11
  %13 = sdiv exact i64 %12, 72
  ret i64 %13
}

; Function Attrs: mustprogress uwtable
define linkonce_odr void @_ZNSt7__cxx1112basic_stringIcSt11char_traitsIcESaIcEEC2IS3_EEPKcRKS3_(ptr noundef nonnull align 8 dereferenceable(32) %0, ptr noundef %1, ptr noundef nonnull align 1 dereferenceable(1) %2) unnamed_addr #4 comdat align 2 personality ptr @__gxx_personality_v0 {
  %4 = alloca ptr, align 8
  %5 = alloca ptr, align 8
  %6 = alloca ptr, align 8
  %7 = alloca ptr, align 8
  %8 = alloca i32, align 4
  %9 = alloca ptr, align 8
  store ptr %0, ptr %4, align 8
  store ptr %1, ptr %5, align 8
  store ptr %2, ptr %6, align 8
  %10 = load ptr, ptr %4, align 8
  %11 = getelementptr inbounds nuw %"class.std::__cxx11::basic_string", ptr %10, i32 0, i32 0
  %12 = call noundef ptr @_ZNSt7__cxx1112basic_stringIcSt11char_traitsIcESaIcEE13_M_local_dataEv(ptr noundef nonnull align 8 dereferenceable(32) %10)
  %13 = load ptr, ptr %6, align 8
  call void @_ZNSt7__cxx1112basic_stringIcSt11char_traitsIcESaIcEE12_Alloc_hiderC1EPcRKS3_(ptr noundef nonnull align 8 dereferenceable(8) %11, ptr noundef %12, ptr noundef nonnull align 1 dereferenceable(1) %13)
  %14 = load ptr, ptr %5, align 8
  %15 = icmp eq ptr %14, null
  br i1 %15, label %16, label %22

16:                                               ; preds = %3
  invoke void @_ZSt19__throw_logic_errorPKc(ptr noundef @.str.16) #13
          to label %17 unwind label %18

17:                                               ; preds = %16
  unreachable

18:                                               ; preds = %26, %22, %16
  %19 = landingpad { ptr, i32 }
          cleanup
  %20 = extractvalue { ptr, i32 } %19, 0
  store ptr %20, ptr %7, align 8
  %21 = extractvalue { ptr, i32 } %19, 1
  store i32 %21, ptr %8, align 4
  call void @_ZNSt7__cxx1112basic_stringIcSt11char_traitsIcESaIcEE12_Alloc_hiderD2Ev(ptr noundef nonnull align 8 dereferenceable(8) %11) #3
  br label %31

22:                                               ; preds = %3
  %23 = load ptr, ptr %5, align 8
  %24 = load ptr, ptr %5, align 8
  %25 = invoke noundef i64 @_ZNSt11char_traitsIcE6lengthEPKc(ptr noundef %24)
          to label %26 unwind label %18

26:                                               ; preds = %22
  %27 = getelementptr inbounds i8, ptr %23, i64 %25
  store ptr %27, ptr %9, align 8
  %28 = load ptr, ptr %5, align 8
  %29 = load ptr, ptr %9, align 8
  invoke void @_ZNSt7__cxx1112basic_stringIcSt11char_traitsIcESaIcEE12_M_constructIPKcEEvT_S8_St20forward_iterator_tag(ptr noundef nonnull align 8 dereferenceable(32) %10, ptr noundef %28, ptr noundef %29)
          to label %30 unwind label %18

30:                                               ; preds = %26
  ret void

31:                                               ; preds = %18
  %32 = load ptr, ptr %7, align 8
  %33 = load i32, ptr %8, align 4
  %34 = insertvalue { ptr, i32 } poison, ptr %32, 0
  %35 = insertvalue { ptr, i32 } %34, i32 %33, 1
  resume { ptr, i32 } %35
}

; Function Attrs: mustprogress uwtable
define void @_ZNK10TimerGroup10TimerLinesB5cxx11ERK5Timer(ptr dead_on_unwind noalias writable sret(%"class.std::__cxx11::basic_string") align 8 %0, ptr noundef nonnull align 8 dereferenceable(56) %1, ptr noundef nonnull align 8 dereferenceable(72) %2) #4 align 2 personality ptr @__gxx_personality_v0 {
  %4 = alloca ptr, align 8
  %5 = alloca ptr, align 8
  %6 = alloca ptr, align 8
  %7 = alloca i1, align 1
  %8 = alloca %"class.std::allocator.0", align 1
  %9 = alloca ptr, align 8
  %10 = alloca i32, align 4
  %11 = alloca i32, align 4
  %12 = alloca i32, align 4
  %13 = alloca %"class.std::__cxx11::basic_string", align 8
  %14 = alloca %"class.std::__cxx11::basic_string", align 8
  %15 = alloca %"class.std::allocator.0", align 1
  store ptr %0, ptr %4, align 8
  store ptr %1, ptr %5, align 8
  store ptr %2, ptr %6, align 8
  %16 = load ptr, ptr %5, align 8
  store i1 false, ptr %7, align 1
  call void @_ZNSaIcEC1Ev(ptr noundef nonnull align 1 dereferenceable(1) %8) #3
  invoke void @_ZNSt7__cxx1112basic_stringIcSt11char_traitsIcESaIcEEC2IS3_EEPKcRKS3_(ptr noundef nonnull align 8 dereferenceable(32) %0, ptr noundef @.str.14, ptr noundef nonnull align 1 dereferenceable(1) %8)
          to label %17 unwind label %48

17:                                               ; preds = %3
  call void @_ZNSaIcED1Ev(ptr noundef nonnull align 1 dereferenceable(1) %8) #3
  store i32 0, ptr %11, align 4
  br label %18

18:                                               ; preds = %71, %17
  %19 = load i32, ptr %11, align 4
  %20 = zext i32 %19 to i64
  %21 = getelementptr inbounds nuw %class.TimerGroup, ptr %16, i32 0, i32 0
  %22 = call noundef i64 @_ZNKSt6vectorI5TimerSaIS0_EE4sizeEv(ptr noundef nonnull align 8 dereferenceable(24) %21) #3
  %23 = icmp ult i64 %20, %22
  br i1 %23, label %24, label %74

24:                                               ; preds = %18
  %25 = getelementptr inbounds nuw %class.TimerGroup, ptr %16, i32 0, i32 0
  %26 = call noundef i64 @_ZNKSt6vectorI5TimerSaIS0_EE4sizeEv(ptr noundef nonnull align 8 dereferenceable(24) %25) #3
  %27 = load i32, ptr %11, align 4
  %28 = zext i32 %27 to i64
  %29 = sub i64 %26, %28
  %30 = sub i64 %29, 1
  %31 = trunc i64 %30 to i32
  store i32 %31, ptr %12, align 4
  %32 = getelementptr inbounds nuw %class.TimerGroup, ptr %16, i32 0, i32 0
  %33 = load i32, ptr %12, align 4
  %34 = zext i32 %33 to i64
  %35 = call noundef nonnull align 8 dereferenceable(72) ptr @_ZNKSt6vectorI5TimerSaIS0_EEixEm(ptr noundef nonnull align 8 dereferenceable(24) %32, i64 noundef %34) #3
  %36 = invoke noundef zeroext i1 @_ZNK5Timer4UsedEv(ptr noundef nonnull align 8 dereferenceable(72) %35)
          to label %37 unwind label %52

37:                                               ; preds = %24
  br i1 %36, label %38, label %70

38:                                               ; preds = %37
  %39 = getelementptr inbounds nuw %class.TimerGroup, ptr %16, i32 0, i32 0
  %40 = load i32, ptr %12, align 4
  %41 = zext i32 %40 to i64
  %42 = call noundef nonnull align 8 dereferenceable(72) ptr @_ZNKSt6vectorI5TimerSaIS0_EEixEm(ptr noundef nonnull align 8 dereferenceable(24) %39, i64 noundef %41) #3
  %43 = load ptr, ptr %6, align 8
  call void @_ZNSaIcEC1Ev(ptr noundef nonnull align 1 dereferenceable(1) %15) #3
  invoke void @_ZNSt7__cxx1112basic_stringIcSt11char_traitsIcESaIcEEC2IS3_EEPKcRKS3_(ptr noundef nonnull align 8 dereferenceable(32) %14, ptr noundef @.str.14, ptr noundef nonnull align 1 dereferenceable(1) %15)
          to label %44 unwind label %56

44:                                               ; preds = %38
  invoke void @_ZNK5Timer7SumLineERKS_RKNSt7__cxx1112basic_stringIcSt11char_traitsIcESaIcEEE(ptr dead_on_unwind writable sret(%"class.std::__cxx11::basic_string") align 8 %13, ptr noundef nonnull align 8 dereferenceable(72) %42, ptr noundef nonnull align 8 dereferenceable(72) %43, ptr noundef nonnull align 8 dereferenceable(32) %14)
          to label %45 unwind label %60

45:                                               ; preds = %44
  %46 = invoke noundef nonnull align 8 dereferenceable(32) ptr @_ZNSt7__cxx1112basic_stringIcSt11char_traitsIcESaIcEEpLERKS4_(ptr noundef nonnull align 8 dereferenceable(32) %0, ptr noundef nonnull align 8 dereferenceable(32) %13)
          to label %47 unwind label %64

47:                                               ; preds = %45
  call void @_ZNSt7__cxx1112basic_stringIcSt11char_traitsIcESaIcEED1Ev(ptr noundef nonnull align 8 dereferenceable(32) %13) #3
  call void @_ZNSt7__cxx1112basic_stringIcSt11char_traitsIcESaIcEED1Ev(ptr noundef nonnull align 8 dereferenceable(32) %14) #3
  call void @_ZNSaIcED1Ev(ptr noundef nonnull align 1 dereferenceable(1) %15) #3
  br label %70

48:                                               ; preds = %3
  %49 = landingpad { ptr, i32 }
          cleanup
  %50 = extractvalue { ptr, i32 } %49, 0
  store ptr %50, ptr %9, align 8
  %51 = extractvalue { ptr, i32 } %49, 1
  store i32 %51, ptr %10, align 4
  call void @_ZNSaIcED1Ev(ptr noundef nonnull align 1 dereferenceable(1) %8) #3
  br label %79

52:                                               ; preds = %24
  %53 = landingpad { ptr, i32 }
          cleanup
  %54 = extractvalue { ptr, i32 } %53, 0
  store ptr %54, ptr %9, align 8
  %55 = extractvalue { ptr, i32 } %53, 1
  store i32 %55, ptr %10, align 4
  br label %78

56:                                               ; preds = %38
  %57 = landingpad { ptr, i32 }
          cleanup
  %58 = extractvalue { ptr, i32 } %57, 0
  store ptr %58, ptr %9, align 8
  %59 = extractvalue { ptr, i32 } %57, 1
  store i32 %59, ptr %10, align 4
  br label %69

60:                                               ; preds = %44
  %61 = landingpad { ptr, i32 }
          cleanup
  %62 = extractvalue { ptr, i32 } %61, 0
  store ptr %62, ptr %9, align 8
  %63 = extractvalue { ptr, i32 } %61, 1
  store i32 %63, ptr %10, align 4
  br label %68

64:                                               ; preds = %45
  %65 = landingpad { ptr, i32 }
          cleanup
  %66 = extractvalue { ptr, i32 } %65, 0
  store ptr %66, ptr %9, align 8
  %67 = extractvalue { ptr, i32 } %65, 1
  store i32 %67, ptr %10, align 4
  call void @_ZNSt7__cxx1112basic_stringIcSt11char_traitsIcESaIcEED1Ev(ptr noundef nonnull align 8 dereferenceable(32) %13) #3
  br label %68

68:                                               ; preds = %64, %60
  call void @_ZNSt7__cxx1112basic_stringIcSt11char_traitsIcESaIcEED1Ev(ptr noundef nonnull align 8 dereferenceable(32) %14) #3
  br label %69

69:                                               ; preds = %68, %56
  call void @_ZNSaIcED1Ev(ptr noundef nonnull align 1 dereferenceable(1) %15) #3
  br label %78

70:                                               ; preds = %47, %37
  br label %71

71:                                               ; preds = %70
  %72 = load i32, ptr %11, align 4
  %73 = add i32 %72, 1
  store i32 %73, ptr %11, align 4
  br label %18, !llvm.loop !12

74:                                               ; preds = %18
  store i1 true, ptr %7, align 1
  %75 = load i1, ptr %7, align 1
  br i1 %75, label %77, label %76

76:                                               ; preds = %74
  call void @_ZNSt7__cxx1112basic_stringIcSt11char_traitsIcESaIcEED1Ev(ptr noundef nonnull align 8 dereferenceable(32) %0) #3
  br label %77

77:                                               ; preds = %76, %74
  ret void

78:                                               ; preds = %69, %52
  call void @_ZNSt7__cxx1112basic_stringIcSt11char_traitsIcESaIcEED1Ev(ptr noundef nonnull align 8 dereferenceable(32) %0) #3
  br label %79

79:                                               ; preds = %78, %48
  %80 = load ptr, ptr %9, align 8
  %81 = load i32, ptr %10, align 4
  %82 = insertvalue { ptr, i32 } poison, ptr %80, 0
  %83 = insertvalue { ptr, i32 } %82, i32 %81, 1
  resume { ptr, i32 } %83
}